target datalayout = "e-m:e-p270:32:32-p271:32:32-p272:64:64-i64:64-i128:128-f80:128-n8:16:32:64-S128"
target triple = "x86_64-pc-linux-gnu"

%struct.VP8LRefsCursor = type { ptr, ptr, ptr }
%struct.PixOrCopy = type { i8, i16, i32 }

; Function Attrs: inlinehint nounwind uwtable
define internal void @VP8LRefsCursorNext(ptr noundef %0) #3 {
  %2 = alloca ptr, align 8
  store ptr %0, ptr %2, align 8, !tbaa !3
  %3 = load ptr, ptr %2, align 8, !tbaa !3
  %4 = getelementptr inbounds nuw %struct.VP8LRefsCursor, ptr %3, i32 0, i32 0
  %5 = load ptr, ptr %4, align 8, !tbaa !9
  %6 = getelementptr inbounds nuw %struct.PixOrCopy, ptr %5, i32 1
  store ptr %6, ptr %4, align 8, !tbaa !9
  %7 = load ptr, ptr %2, align 8, !tbaa !3
  %8 = getelementptr inbounds nuw %struct.VP8LRefsCursor, ptr %7, i32 0, i32 2
  %9 = load ptr, ptr %8, align 8, !tbaa !20
  %10 = icmp eq ptr %6, %9
  br i1 %10, label %11, label %13

11:                                               ; preds = %1
  %12 = load ptr, ptr %2, align 8, !tbaa !3
  call void @VP8LRefsCursorNextBlock(ptr noundef %12)
  br label %13

13:                                               ; preds = %11, %1
  ret void
}

; Function Attrs: inlinehint nounwind uwtable
define internal i32 @VP8LRefsCursorOk(ptr noundef %0) #3 {
  %2 = alloca ptr, align 8
  store ptr %0, ptr %2, align 8, !tbaa !3
  %3 = load ptr, ptr %2, align 8, !tbaa !3
  %4 = getelementptr inbounds nuw %struct.VP8LRefsCursor, ptr %3, i32 0, i32 0
  %5 = load ptr, ptr %4, align 8, !tbaa !9
  %6 = icmp ne ptr %5, null
  %7 = zext i1 %6 to i32
  ret i32 %7
}

; Function Attrs: nounwind uwtable
define hidden void @VP8LHistogramStoreRefs(ptr noundef %0, ptr noundef %1) #0 {
  %3 = alloca ptr, align 8
  %4 = alloca ptr, align 8
  %5 = alloca %struct.VP8LRefsCursor, align 8
  store ptr %0, ptr %3, align 8, !tbaa !7
  store ptr %1, ptr %4, align 8, !tbaa !3
  call void @llvm.lifetime.start.p0(i64 24, ptr %5) #7
  %6 = load ptr, ptr %3, align 8, !tbaa !7
  call void @VP8LRefsCursorInit(ptr dead_on_unwind writable sret(%struct.VP8LRefsCursor) align 8 %5, ptr noundef %6)
  br label %7

7:                                                ; preds = %10, %2
  %8 = call i32 @VP8LRefsCursorOk(ptr noundef %5)
  %9 = icmp ne i32 %8, 0
  br i1 %9, label %10, label %14

10:                                               ; preds = %7
  %11 = load ptr, ptr %4, align 8, !tbaa !3
  %12 = getelementptr inbounds nuw %struct.VP8LRefsCursor, ptr %5, i32 0, i32 0
  %13 = load ptr, ptr %12, align 8, !tbaa !9
  call void @VP8LHistogramAddSinglePixOrCopy(ptr noundef %11, ptr noundef %13, ptr noundef null, i32 noundef 0)
  call void @VP8LRefsCursorNext(ptr noundef %5)
  br label %7, !llvm.loop !12

14:                                               ; preds = %7
  call void @llvm.lifetime.end.p0(i64 24, ptr %5) #7
  ret void
}