; Function Attrs: nounwind uwtable
define hidden void @VP8LHistogramStoreRefs(ptr noundef %0, ptr noundef captures(none) %1) local_unnamed_addr #0 {
  %3 = alloca %struct.VP8LRefsCursor, align 8
  call void @llvm.lifetime.start.p0(i64 24, ptr nonnull %3) #10
  call void @VP8LRefsCursorInit(ptr dead_on_unwind nonnull writable sret(%struct.VP8LRefsCursor) align 8 %3, ptr noundef %0) #10
  %.val3 = load ptr, ptr %3, align 8, !tbaa !3
  %.not24 = icmp eq ptr %.val3, null
  br i1 %.not24, label %._crit_edge, label %.lr.ph

.lr.ph:                                           ; preds = %2
  %4 = getelementptr inbounds nuw i8, ptr %3, i64 16
  br label %5

5:                                                ; preds = %.lr.ph, %VP8LRefsCursorNext.exit
  %.val5 = phi ptr [ %.val3, %.lr.ph ], [ %.val, %VP8LRefsCursorNext.exit ]
  call void @VP8LHistogramAddSinglePixOrCopy(ptr noundef %1, ptr noundef nonnull %.val5, ptr noundef null, i32 noundef 0)
  %6 = load ptr, ptr %3, align 8, !tbaa !3
  %7 = getelementptr inbounds nuw i8, ptr %6, i64 8
  store ptr %7, ptr %3, align 8, !tbaa !3
  %8 = load ptr, ptr %4, align 8, !tbaa !9
  %9 = icmp eq ptr %7, %8
  br i1 %9, label %10, label %VP8LRefsCursorNext.exit

10:                                               ; preds = %5
  call void @VP8LRefsCursorNextBlock(ptr noundef nonnull %3) #10
  %.val.pre = load ptr, ptr %3, align 8, !tbaa !3
  br label %VP8LRefsCursorNext.exit

VP8LRefsCursorNext.exit:                          ; preds = %5, %10
  %.val = phi ptr [ %7, %5 ], [ %.val.pre, %10 ]
  %.not2 = icmp eq ptr %.val, null
  br i1 %.not2, label %._crit_edge, label %5, !llvm.loop !10

._crit_edge:                                      ; preds = %VP8LRefsCursorNext.exit, %2
  call void @llvm.lifetime.end.p0(i64 24, ptr nonnull %3) #10
  ret void
}